target datalayout = "e-m:e-p270:32:32-p271:32:32-p272:64:64-i64:64-i128:128-f80:128-n8:16:32:64-S128"
target triple = "x86_64-pc-linux-gnu"

%struct._lv_lru_rb_t = type { %struct._lv_cache_t, %struct._lv_rb_t, %struct.lv_ll_t, ptr }
%struct._lv_cache_t = type { ptr, i32, i32, i32, %struct._lv_cache_ops_t, i32, ptr }
%struct._lv_cache_ops_t = type { ptr, ptr, ptr }
%struct._lv_rb_t = type { ptr, ptr, i64 }
%struct.lv_ll_t = type { i32, ptr, ptr }

; Function Attrs: nounwind uwtable
define internal i32 @reserve_cond_cb(ptr noundef %0, ptr noundef %1, i64 noundef %2, ptr noundef %3) #0 {
  %5 = alloca i32, align 4
  %6 = alloca ptr, align 8
  %7 = alloca ptr, align 8
  %8 = alloca i64, align 8
  %9 = alloca ptr, align 8
  %10 = alloca ptr, align 8
  %11 = alloca i32, align 4
  %12 = alloca i32, align 4
  store ptr %0, ptr %6, align 8, !tbaa !3
  store ptr %1, ptr %7, align 8, !tbaa !3
  store i64 %2, ptr %8, align 8, !tbaa !29
  store ptr %3, ptr %9, align 8, !tbaa !3
  call void @llvm.lifetime.start.p0(i64 8, ptr %10) #4
  %13 = load ptr, ptr %6, align 8, !tbaa !3
  store ptr %13, ptr %10, align 8, !tbaa !3
  br label %14

14:                                               ; preds = %4
  %15 = load ptr, ptr %10, align 8, !tbaa !3
  %16 = icmp ne ptr %15, null
  br i1 %16, label %23, label %17

17:                                               ; preds = %14
  br label %18

18:                                               ; preds = %17
  br label %19

19:                                               ; preds = %18
  br label %20

20:                                               ; preds = %19
  br label %21

21:                                               ; preds = %22, %20
  br label %22

22:                                               ; preds = %21
  br label %21

23:                                               ; preds = %14
  br label %24

24:                                               ; preds = %23
  br label %25

25:                                               ; preds = %24
  %26 = load ptr, ptr %10, align 8, !tbaa !3
  %27 = icmp eq ptr %26, null
  br i1 %27, label %28, label %29

28:                                               ; preds = %25
  store i32 3, ptr %5, align 4
  store i32 1, ptr %11, align 4
  br label %69

29:                                               ; preds = %25
  call void @llvm.lifetime.start.p0(i64 4, ptr %12) #4
  %30 = load ptr, ptr %7, align 8, !tbaa !3
  %31 = icmp ne ptr %30, null
  br i1 %31, label %32, label %38

32:                                               ; preds = %29
  %33 = load ptr, ptr %10, align 8, !tbaa !3
  %34 = getelementptr inbounds nuw %struct._lv_lru_rb_t, ptr %33, i32 0, i32 3
  %35 = load ptr, ptr %34, align 8, !tbaa !17
  %36 = load ptr, ptr %7, align 8, !tbaa !3
  %37 = call i32 %35(ptr noundef %36)
  br label %39

38:                                               ; preds = %29
  br label %39

39:                                               ; preds = %38, %32
  %40 = phi i32 [ %37, %32 ], [ 0, %38 ]
  store i32 %40, ptr %12, align 4, !tbaa !25
  %41 = load i32, ptr %12, align 4, !tbaa !25
  %42 = load ptr, ptr %10, align 8, !tbaa !3
  %43 = getelementptr inbounds nuw %struct._lv_lru_rb_t, ptr %42, i32 0, i32 0
  %44 = getelementptr inbounds nuw %struct._lv_cache_t, ptr %43, i32 0, i32 2
  %45 = load i32, ptr %44, align 4, !tbaa !30
  %46 = icmp ugt i32 %41, %45
  br i1 %46, label %47, label %51

47:                                               ; preds = %39
  br label %48

48:                                               ; preds = %47
  br label %49

49:                                               ; preds = %48
  br label %50

50:                                               ; preds = %49
  store i32 1, ptr %5, align 4
  store i32 1, ptr %11, align 4
  br label %68

51:                                               ; preds = %39
  %52 = load ptr, ptr %6, align 8, !tbaa !3
  %53 = getelementptr inbounds nuw %struct._lv_cache_t, ptr %52, i32 0, i32 3
  %54 = load i32, ptr %53, align 8, !tbaa !24
  %55 = zext i32 %54 to i64
  %56 = load i64, ptr %8, align 8, !tbaa !29
  %57 = add i64 %55, %56
  %58 = load i32, ptr %12, align 4, !tbaa !25
  %59 = zext i32 %58 to i64
  %60 = add i64 %57, %59
  %61 = load ptr, ptr %10, align 8, !tbaa !3
  %62 = getelementptr inbounds nuw %struct._lv_lru_rb_t, ptr %61, i32 0, i32 0
  %63 = getelementptr inbounds nuw %struct._lv_cache_t, ptr %62, i32 0, i32 2
  %64 = load i32, ptr %63, align 4, !tbaa !30
  %65 = zext i32 %64 to i64
  %66 = icmp ugt i64 %60, %65
  %67 = select i1 %66, i32 2, i32 0
  store i32 %67, ptr %5, align 4
  store i32 1, ptr %11, align 4
  br label %68

68:                                               ; preds = %51, %50
  call void @llvm.lifetime.end.p0(i64 4, ptr %12) #4
  br label %69

69:                                               ; preds = %68, %28
  call void @llvm.lifetime.end.p0(i64 8, ptr %10) #4
  %70 = load i32, ptr %5, align 4
  ret i32 %70
}