; Function Attrs: nounwind uwtable
define internal range(i32 0, 3) i32 @reserve_cond_cb(ptr noundef readonly %0, ptr noundef %1, i64 noundef %2, ptr nocapture readnone %3) #0 {
  %.not = icmp eq ptr %0, null
  br i1 %.not, label %.preheader, label %5

.preheader:                                       ; preds = %4, %.preheader
  br label %.preheader

5:                                                ; preds = %4
  %.not16 = icmp eq ptr %1, null
  br i1 %.not16, label %.thread, label %8

.thread:                                          ; preds = %5
  %6 = getelementptr inbounds nuw i8, ptr %0, i64 12
  %7 = load i32, ptr %6, align 4, !tbaa !29
  br label %15

8:                                                ; preds = %5
  %9 = getelementptr inbounds nuw i8, ptr %0, i64 112
  %10 = load ptr, ptr %9, align 8, !tbaa !16
  %11 = tail call i32 %10(ptr noundef nonnull %1) #5
  %12 = getelementptr inbounds nuw i8, ptr %0, i64 12
  %13 = load i32, ptr %12, align 4, !tbaa !29
  %14 = icmp ugt i32 %11, %13
  br i1 %14, label %27, label %15

15:                                               ; preds = %.thread, %8
  %16 = phi i32 [ %7, %.thread ], [ %13, %8 ]
  %17 = phi i32 [ 0, %.thread ], [ %11, %8 ]
  %18 = getelementptr inbounds nuw i8, ptr %0, i64 16
  %19 = load i32, ptr %18, align 8, !tbaa !25
  %20 = zext i32 %19 to i64
  %21 = zext i32 %17 to i64
  %22 = add i64 %2, %21
  %23 = add i64 %22, %20
  %24 = zext i32 %16 to i64
  %25 = icmp ugt i64 %23, %24
  %26 = select i1 %25, i32 2, i32 0
  br label %27

27:                                               ; preds = %15, %8
  %.1 = phi i32 [ %26, %15 ], [ 1, %8 ]
  ret i32 %.1
}